CCS PCM C Compiler, Version 5.081, 13314               17-jun-19 12:25

               Filename:   C:\Users\pedro\OneDrive\Faculdade\Faculdade\2019.1\Microcontroladores\PID\PID2\main.lst

               ROM used:   2323 words (28%)
                           Largest free fragment is 2048
               RAM used:   67 (18%) at main() level
                           85 (23%) worst case
               Stack used: 3 locations (2 in main + 1 for interrupts)
               Stack size: 8

*
0000:  MOVLW  08
0001:  MOVWF  0A
0002:  GOTO   000
0003:  NOP
0004:  MOVWF  7F
0005:  SWAPF  03,W
0006:  CLRF   03
0007:  MOVWF  21
0008:  MOVF   0A,W
0009:  MOVWF  20
000A:  CLRF   0A
000B:  MOVF   04,W
000C:  MOVWF  22
000D:  MOVF   77,W
000E:  MOVWF  23
000F:  MOVF   78,W
0010:  MOVWF  24
0011:  MOVF   79,W
0012:  MOVWF  25
0013:  MOVF   7A,W
0014:  MOVWF  26
0015:  BSF    03.6
0016:  MOVF   0D,W
0017:  BCF    03.6
0018:  MOVWF  27
0019:  BSF    03.6
001A:  MOVF   0F,W
001B:  BCF    03.6
001C:  MOVWF  28
001D:  BSF    03.6
001E:  MOVF   0C,W
001F:  BCF    03.6
0020:  MOVWF  29
0021:  BSF    03.6
0022:  MOVF   0E,W
0023:  BCF    03.6
0024:  MOVWF  2A
0025:  BCF    03.7
0026:  BCF    03.5
0027:  BTFSS  0B.4
0028:  GOTO   02B
0029:  BTFSC  0B.1
002A:  GOTO   04C
002B:  MOVF   22,W
002C:  MOVWF  04
002D:  MOVF   23,W
002E:  MOVWF  77
002F:  MOVF   24,W
0030:  MOVWF  78
0031:  MOVF   25,W
0032:  MOVWF  79
0033:  MOVF   26,W
0034:  MOVWF  7A
0035:  MOVF   27,W
0036:  BSF    03.6
0037:  MOVWF  0D
0038:  BCF    03.6
0039:  MOVF   28,W
003A:  BSF    03.6
003B:  MOVWF  0F
003C:  BCF    03.6
003D:  MOVF   29,W
003E:  BSF    03.6
003F:  MOVWF  0C
0040:  BCF    03.6
0041:  MOVF   2A,W
0042:  BSF    03.6
0043:  MOVWF  0E
0044:  BCF    03.6
0045:  MOVF   20,W
0046:  MOVWF  0A
0047:  SWAPF  21,W
0048:  MOVWF  03
0049:  SWAPF  7F,F
004A:  SWAPF  7F,W
004B:  RETFIE
004C:  BCF    0A.3
004D:  BCF    0A.4
004E:  GOTO   04F
.................... //#include <main.h> 
....................  
.................... #include <16F877A.h> 
.................... //////////// Standard Header file for the PIC16F877A device //////////////// 
.................... /////////////////////////////////////////////////////////////////////////// 
.................... ////        (C) Copyright 1996, 2014 Custom Computer Services          //// 
.................... //// This source code may only be used by licensed users of the CCS C  //// 
.................... //// compiler.  This source code may only be distributed to other      //// 
.................... //// licensed users of the CCS C compiler.  No other use, reproduction //// 
.................... //// or distribution is permitted without written permission.          //// 
.................... //// Derivative programs created using this software in object code    //// 
.................... //// form are not restricted in any way.                               //// 
.................... /////////////////////////////////////////////////////////////////////////// 
.................... #device PIC16F877A 
*
0065:  DATA D4,32
0066:  DATA 6D,38
0067:  DATA 3A,10
0068:  DATA 25,33
0069:  DATA 00,00
006A:  DATA A0,22
006B:  DATA 72,39
006C:  DATA 6F,39
006D:  DATA 21,10
006E:  DATA 00,00
006F:  DATA F4,32
0070:  DATA 6D,38
0071:  DATA EF,2F
0072:  DATA 4F,37
0073:  DATA BA,12
0074:  DATA 69,10
0075:  DATA 80,27
0076:  DATA D0,24
0077:  DATA 44,1D
0078:  DATA A0,12
0079:  DATA 66,10
007A:  DATA 00,01
007B:  DATA F3,32
007C:  DATA 74,1D
007D:  DATA A0,12
007E:  DATA 69,10
007F:  DATA 00,01
0080:  DATA FA,32
0081:  DATA F2,37
0082:  DATA 3A,10
0083:  DATA A5,34
0084:  DATA 8A,06
0085:  DATA 00,00
*
0155:  MOVLW  8E
0156:  MOVWF  77
0157:  MOVF   57,W
0158:  MOVWF  78
0159:  MOVF   56,W
015A:  MOVWF  79
015B:  CLRF   7A
015C:  BTFSS  57.7
015D:  GOTO   163
015E:  COMF   78,F
015F:  COMF   79,F
0160:  INCF   79,F
0161:  BTFSC  03.2
0162:  INCF   78,F
0163:  MOVF   78,F
0164:  BTFSS  03.2
0165:  GOTO   170
0166:  MOVF   79,W
0167:  MOVWF  78
0168:  CLRF   79
0169:  MOVLW  08
016A:  SUBWF  77,F
016B:  MOVF   78,F
016C:  BTFSS  03.2
016D:  GOTO   170
016E:  CLRF   77
016F:  GOTO   179
0170:  BCF    03.0
0171:  BTFSC  78.7
0172:  GOTO   177
0173:  RLF    79,F
0174:  RLF    78,F
0175:  DECF   77,F
0176:  GOTO   170
0177:  BTFSS  57.7
0178:  BCF    78.7
0179:  BSF    0A.3
017A:  BCF    0A.4
017B:  GOTO   05D (RETURN)
017C:  MOVF   5E,W
017D:  BTFSC  03.2
017E:  GOTO   241
017F:  MOVWF  6A
0180:  MOVF   62,W
0181:  BTFSC  03.2
0182:  GOTO   241
0183:  SUBWF  6A,F
0184:  BTFSS  03.0
0185:  GOTO   18B
0186:  MOVLW  7F
0187:  ADDWF  6A,F
0188:  BTFSC  03.0
0189:  GOTO   241
018A:  GOTO   191
018B:  MOVLW  81
018C:  SUBWF  6A,F
018D:  BTFSS  03.0
018E:  GOTO   241
018F:  BTFSC  03.2
0190:  GOTO   241
0191:  MOVF   6A,W
0192:  MOVWF  77
0193:  CLRF   78
0194:  CLRF   79
0195:  CLRF   7A
0196:  CLRF   69
0197:  MOVF   5F,W
0198:  MOVWF  68
0199:  BSF    68.7
019A:  MOVF   60,W
019B:  MOVWF  67
019C:  MOVF   61,W
019D:  MOVWF  66
019E:  MOVLW  19
019F:  MOVWF  6A
01A0:  MOVF   65,W
01A1:  SUBWF  66,F
01A2:  BTFSC  03.0
01A3:  GOTO   1B4
01A4:  MOVLW  01
01A5:  SUBWF  67,F
01A6:  BTFSC  03.0
01A7:  GOTO   1B4
01A8:  SUBWF  68,F
01A9:  BTFSC  03.0
01AA:  GOTO   1B4
01AB:  SUBWF  69,F
01AC:  BTFSC  03.0
01AD:  GOTO   1B4
01AE:  INCF   69,F
01AF:  INCF   68,F
01B0:  INCF   67,F
01B1:  MOVF   65,W
01B2:  ADDWF  66,F
01B3:  GOTO   1E6
01B4:  MOVF   64,W
01B5:  SUBWF  67,F
01B6:  BTFSC  03.0
01B7:  GOTO   1CF
01B8:  MOVLW  01
01B9:  SUBWF  68,F
01BA:  BTFSC  03.0
01BB:  GOTO   1CF
01BC:  SUBWF  69,F
01BD:  BTFSC  03.0
01BE:  GOTO   1CF
01BF:  INCF   69,F
01C0:  INCF   68,F
01C1:  MOVF   64,W
01C2:  ADDWF  67,F
01C3:  MOVF   65,W
01C4:  ADDWF  66,F
01C5:  BTFSS  03.0
01C6:  GOTO   1E6
01C7:  INCF   67,F
01C8:  BTFSS  03.2
01C9:  GOTO   1E6
01CA:  INCF   68,F
01CB:  BTFSS  03.2
01CC:  GOTO   1E6
01CD:  INCF   69,F
01CE:  GOTO   1E6
01CF:  MOVF   63,W
01D0:  IORLW  80
01D1:  SUBWF  68,F
01D2:  BTFSC  03.0
01D3:  GOTO   1E5
01D4:  MOVLW  01
01D5:  SUBWF  69,F
01D6:  BTFSC  03.0
01D7:  GOTO   1E5
01D8:  INCF   69,F
01D9:  MOVF   63,W
01DA:  IORLW  80
01DB:  ADDWF  68,F
01DC:  MOVF   64,W
01DD:  ADDWF  67,F
01DE:  BTFSS  03.0
01DF:  GOTO   1C3
01E0:  INCF   68,F
01E1:  BTFSS  03.2
01E2:  GOTO   1C3
01E3:  INCF   69,F
01E4:  GOTO   1C3
01E5:  BSF    7A.0
01E6:  DECFSZ 6A,F
01E7:  GOTO   1E9
01E8:  GOTO   1F4
01E9:  BCF    03.0
01EA:  RLF    66,F
01EB:  RLF    67,F
01EC:  RLF    68,F
01ED:  RLF    69,F
01EE:  BCF    03.0
01EF:  RLF    7A,F
01F0:  RLF    79,F
01F1:  RLF    78,F
01F2:  RLF    6B,F
01F3:  GOTO   1A0
01F4:  BTFSS  6B.0
01F5:  GOTO   1FC
01F6:  BCF    03.0
01F7:  RRF    78,F
01F8:  RRF    79,F
01F9:  RRF    7A,F
01FA:  RRF    6B,F
01FB:  GOTO   1FF
01FC:  DECF   77,F
01FD:  BTFSC  03.2
01FE:  GOTO   241
01FF:  BTFSC  6B.7
0200:  GOTO   228
0201:  BCF    03.0
0202:  RLF    66,F
0203:  RLF    67,F
0204:  RLF    68,F
0205:  RLF    69,F
0206:  MOVF   65,W
0207:  SUBWF  66,F
0208:  BTFSC  03.0
0209:  GOTO   214
020A:  MOVLW  01
020B:  SUBWF  67,F
020C:  BTFSC  03.0
020D:  GOTO   214
020E:  SUBWF  68,F
020F:  BTFSC  03.0
0210:  GOTO   214
0211:  SUBWF  69,F
0212:  BTFSS  03.0
0213:  GOTO   237
0214:  MOVF   64,W
0215:  SUBWF  67,F
0216:  BTFSC  03.0
0217:  GOTO   21F
0218:  MOVLW  01
0219:  SUBWF  68,F
021A:  BTFSC  03.0
021B:  GOTO   21F
021C:  SUBWF  69,F
021D:  BTFSS  03.0
021E:  GOTO   237
021F:  MOVF   63,W
0220:  IORLW  80
0221:  SUBWF  68,F
0222:  BTFSC  03.0
0223:  GOTO   228
0224:  MOVLW  01
0225:  SUBWF  69,F
0226:  BTFSS  03.0
0227:  GOTO   237
0228:  INCF   7A,F
0229:  BTFSS  03.2
022A:  GOTO   237
022B:  INCF   79,F
022C:  BTFSS  03.2
022D:  GOTO   237
022E:  INCF   78,F
022F:  BTFSS  03.2
0230:  GOTO   237
0231:  INCF   77,F
0232:  BTFSC  03.2
0233:  GOTO   241
0234:  RRF    78,F
0235:  RRF    79,F
0236:  RRF    7A,F
0237:  MOVF   5F,W
0238:  MOVWF  6A
0239:  MOVF   63,W
023A:  XORWF  6A,F
023B:  BTFSS  6A.7
023C:  GOTO   23F
023D:  BSF    78.7
023E:  GOTO   245
023F:  BCF    78.7
0240:  GOTO   245
0241:  CLRF   77
0242:  CLRF   78
0243:  CLRF   79
0244:  CLRF   7A
0245:  RETURN
0246:  MOVF   0B,W
0247:  MOVWF  57
0248:  BCF    0B.7
0249:  BSF    03.5
024A:  BSF    03.6
024B:  BSF    0C.7
024C:  BSF    0C.0
024D:  NOP
024E:  NOP
024F:  BCF    03.5
0250:  BCF    03.6
0251:  BTFSC  57.7
0252:  BSF    0B.7
0253:  BTFSC  03.0
0254:  GOTO   27E
0255:  BSF    03.6
0256:  MOVF   0C,W
0257:  ANDLW  7F
0258:  BCF    03.6
0259:  MOVWF  57
025A:  BSF    03.6
025B:  MOVF   0D,W
025C:  BCF    03.6
025D:  MOVWF  58
025E:  BSF    03.6
025F:  MOVF   0F,W
0260:  BCF    03.6
0261:  MOVWF  59
0262:  MOVF   57,W
0263:  BTFSS  0C.4
0264:  GOTO   263
0265:  MOVWF  19
0266:  MOVF   58,W
0267:  BSF    03.6
0268:  MOVWF  0D
0269:  BCF    03.6
026A:  MOVF   59,W
026B:  BSF    03.6
026C:  MOVWF  0F
026D:  BCF    03.6
026E:  MOVF   0B,W
026F:  MOVWF  5A
0270:  BCF    0B.7
0271:  BSF    03.5
0272:  BSF    03.6
0273:  BSF    0C.7
0274:  BSF    0C.0
0275:  NOP
0276:  NOP
0277:  BCF    03.5
0278:  BCF    03.6
0279:  BTFSC  5A.7
027A:  BSF    0B.7
027B:  DECFSZ 56,F
027C:  GOTO   27E
027D:  GOTO   29E
027E:  BSF    03.6
027F:  RLF    0C,W
0280:  RLF    0E,W
0281:  ANDLW  7F
0282:  BCF    03.6
0283:  MOVWF  57
0284:  BSF    03.6
0285:  MOVF   0D,W
0286:  BCF    03.6
0287:  MOVWF  58
0288:  BSF    03.6
0289:  MOVF   0F,W
028A:  BCF    03.6
028B:  MOVWF  59
028C:  MOVF   57,W
028D:  BTFSS  0C.4
028E:  GOTO   28D
028F:  MOVWF  19
0290:  MOVF   58,W
0291:  BSF    03.6
0292:  MOVWF  0D
0293:  BCF    03.6
0294:  MOVF   59,W
0295:  BSF    03.6
0296:  MOVWF  0F
0297:  INCF   0D,F
0298:  BTFSC  03.2
0299:  INCF   0F,F
029A:  BCF    03.0
029B:  BCF    03.6
029C:  DECFSZ 56,F
029D:  GOTO   246
029E:  RETURN
029F:  MOVF   63,W
02A0:  BTFSC  03.2
02A1:  GOTO   30F
02A2:  MOVWF  6B
02A3:  MOVF   67,W
02A4:  BTFSC  03.2
02A5:  GOTO   30F
02A6:  ADDWF  6B,F
02A7:  BTFSC  03.0
02A8:  GOTO   2B0
02A9:  MOVLW  7F
02AA:  SUBWF  6B,F
02AB:  BTFSS  03.0
02AC:  GOTO   30F
02AD:  BTFSC  03.2
02AE:  GOTO   30F
02AF:  GOTO   2B4
02B0:  MOVLW  81
02B1:  ADDWF  6B,F
02B2:  BTFSC  03.0
02B3:  GOTO   30F
02B4:  MOVF   6B,W
02B5:  MOVWF  77
02B6:  CLRF   78
02B7:  CLRF   79
02B8:  CLRF   7A
02B9:  MOVF   64,W
02BA:  MOVWF  6F
02BB:  BSF    6F.7
02BC:  MOVF   65,W
02BD:  MOVWF  6E
02BE:  MOVF   66,W
02BF:  MOVWF  6D
02C0:  MOVLW  18
02C1:  MOVWF  6B
02C2:  CLRF   6C
02C3:  BTFSS  6D.0
02C4:  GOTO   2DD
02C5:  MOVF   6A,W
02C6:  ADDWF  7A,F
02C7:  BTFSS  03.0
02C8:  GOTO   2CF
02C9:  INCF   79,F
02CA:  BTFSS  03.2
02CB:  GOTO   2CF
02CC:  INCF   78,F
02CD:  BTFSC  03.2
02CE:  BSF    6C.7
02CF:  MOVF   69,W
02D0:  ADDWF  79,F
02D1:  BTFSS  03.0
02D2:  GOTO   2D6
02D3:  INCF   78,F
02D4:  BTFSC  03.2
02D5:  BSF    6C.7
02D6:  MOVF   68,W
02D7:  MOVWF  65
02D8:  BSF    65.7
02D9:  MOVF   65,W
02DA:  ADDWF  78,F
02DB:  BTFSC  03.0
02DC:  BSF    6C.7
02DD:  RLF    6C,F
02DE:  RRF    78,F
02DF:  RRF    79,F
02E0:  RRF    7A,F
02E1:  RRF    6F,F
02E2:  RRF    6E,F
02E3:  RRF    6D,F
02E4:  BCF    03.0
02E5:  DECFSZ 6B,F
02E6:  GOTO   2C2
02E7:  MOVLW  01
02E8:  ADDWF  77,F
02E9:  BTFSC  03.0
02EA:  GOTO   30F
02EB:  BTFSC  78.7
02EC:  GOTO   2F4
02ED:  RLF    6F,F
02EE:  RLF    7A,F
02EF:  RLF    79,F
02F0:  RLF    78,F
02F1:  DECF   77,F
02F2:  BTFSC  03.2
02F3:  GOTO   30F
02F4:  BTFSS  6F.7
02F5:  GOTO   305
02F6:  INCF   7A,F
02F7:  BTFSS  03.2
02F8:  GOTO   305
02F9:  INCF   79,F
02FA:  BTFSS  03.2
02FB:  GOTO   305
02FC:  INCF   78,F
02FD:  BTFSS  03.2
02FE:  GOTO   305
02FF:  RRF    78,F
0300:  RRF    79,F
0301:  RRF    7A,F
0302:  INCF   77,F
0303:  BTFSC  03.2
0304:  GOTO   30F
0305:  MOVF   64,W
0306:  MOVWF  6C
0307:  MOVF   68,W
0308:  XORWF  6C,F
0309:  BTFSS  6C.7
030A:  GOTO   30D
030B:  BSF    78.7
030C:  GOTO   313
030D:  BCF    78.7
030E:  GOTO   313
030F:  CLRF   77
0310:  CLRF   78
0311:  CLRF   79
0312:  CLRF   7A
0313:  RETURN
0314:  BTFSC  03.1
0315:  GOTO   319
0316:  MOVLW  6B
0317:  MOVWF  04
0318:  BCF    03.7
0319:  CLRF   77
031A:  CLRF   78
031B:  CLRF   79
031C:  CLRF   7A
031D:  CLRF   6B
031E:  CLRF   6C
031F:  CLRF   6D
0320:  CLRF   6E
0321:  MOVF   6A,W
0322:  IORWF  69,W
0323:  IORWF  68,W
0324:  IORWF  67,W
0325:  BTFSC  03.2
0326:  GOTO   357
0327:  MOVLW  20
0328:  MOVWF  6F
0329:  BCF    03.0
032A:  RLF    63,F
032B:  RLF    64,F
032C:  RLF    65,F
032D:  RLF    66,F
032E:  RLF    6B,F
032F:  RLF    6C,F
0330:  RLF    6D,F
0331:  RLF    6E,F
0332:  MOVF   6A,W
0333:  SUBWF  6E,W
0334:  BTFSS  03.2
0335:  GOTO   340
0336:  MOVF   69,W
0337:  SUBWF  6D,W
0338:  BTFSS  03.2
0339:  GOTO   340
033A:  MOVF   68,W
033B:  SUBWF  6C,W
033C:  BTFSS  03.2
033D:  GOTO   340
033E:  MOVF   67,W
033F:  SUBWF  6B,W
0340:  BTFSS  03.0
0341:  GOTO   351
0342:  MOVF   67,W
0343:  SUBWF  6B,F
0344:  MOVF   68,W
0345:  BTFSS  03.0
0346:  INCFSZ 68,W
0347:  SUBWF  6C,F
0348:  MOVF   69,W
0349:  BTFSS  03.0
034A:  INCFSZ 69,W
034B:  SUBWF  6D,F
034C:  MOVF   6A,W
034D:  BTFSS  03.0
034E:  INCFSZ 6A,W
034F:  SUBWF  6E,F
0350:  BSF    03.0
0351:  RLF    77,F
0352:  RLF    78,F
0353:  RLF    79,F
0354:  RLF    7A,F
0355:  DECFSZ 6F,F
0356:  GOTO   329
0357:  MOVF   6B,W
0358:  MOVWF  00
0359:  INCF   04,F
035A:  MOVF   6C,W
035B:  MOVWF  00
035C:  INCF   04,F
035D:  MOVF   6D,W
035E:  MOVWF  00
035F:  INCF   04,F
0360:  MOVF   6E,W
0361:  MOVWF  00
0362:  RETURN
0363:  MOVF   04,W
0364:  MOVWF  5B
0365:  MOVF   5A,W
0366:  MOVWF  5D
0367:  BTFSC  03.2
0368:  GOTO   382
0369:  MOVF   59,W
036A:  MOVWF  66
036B:  MOVF   58,W
036C:  MOVWF  65
036D:  MOVF   57,W
036E:  MOVWF  64
036F:  MOVF   56,W
0370:  MOVWF  63
0371:  CLRF   6A
0372:  CLRF   69
0373:  MOVLW  20
0374:  MOVWF  68
0375:  MOVLW  82
0376:  MOVWF  67
0377:  CALL   29F
0378:  MOVF   7A,W
0379:  MOVWF  59
037A:  MOVF   79,W
037B:  MOVWF  58
037C:  MOVF   78,W
037D:  MOVWF  57
037E:  MOVF   77,W
037F:  MOVWF  56
0380:  DECFSZ 5D,F
0381:  GOTO   369
0382:  MOVF   59,W
0383:  MOVWF  66
0384:  MOVF   58,W
0385:  MOVWF  65
0386:  MOVF   57,W
0387:  MOVWF  64
0388:  MOVF   56,W
0389:  MOVWF  63
038A:  MOVF   63,W
038B:  SUBLW  B6
038C:  MOVWF  63
038D:  CLRF   7A
038E:  MOVF   64,W
038F:  MOVWF  67
0390:  BSF    64.7
0391:  BCF    03.0
0392:  RRF    64,F
0393:  RRF    65,F
0394:  RRF    66,F
0395:  RRF    7A,F
0396:  RRF    79,F
0397:  RRF    78,F
0398:  RRF    77,F
0399:  DECFSZ 63,F
039A:  GOTO   391
039B:  BTFSS  67.7
039C:  GOTO   3A8
039D:  COMF   77,F
039E:  COMF   78,F
039F:  COMF   79,F
03A0:  COMF   7A,F
03A1:  INCF   77,F
03A2:  BTFSC  03.2
03A3:  INCF   78,F
03A4:  BTFSC  03.2
03A5:  INCF   79,F
03A6:  BTFSC  03.2
03A7:  INCF   7A,F
03A8:  MOVF   7A,W
03A9:  MOVWF  59
03AA:  MOVF   79,W
03AB:  MOVWF  58
03AC:  MOVF   78,W
03AD:  MOVWF  57
03AE:  MOVF   77,W
03AF:  MOVWF  56
03B0:  BTFSS  59.7
03B1:  GOTO   3BF
03B2:  DECF   5B,F
03B3:  BSF    5B.5
03B4:  COMF   56,F
03B5:  COMF   57,F
03B6:  COMF   58,F
03B7:  COMF   59,F
03B8:  INCF   56,F
03B9:  BTFSC  03.2
03BA:  INCF   57,F
03BB:  BTFSC  03.2
03BC:  INCF   58,F
03BD:  BTFSC  03.2
03BE:  INCF   59,F
03BF:  MOVLW  3B
03C0:  MOVWF  62
03C1:  MOVLW  9A
03C2:  MOVWF  61
03C3:  MOVLW  CA
03C4:  MOVWF  60
03C5:  CLRF   5F
03C6:  MOVLW  0A
03C7:  MOVWF  5D
03C8:  MOVF   5A,W
03C9:  BTFSC  03.2
03CA:  INCF   5B,F
03CB:  BSF    03.1
03CC:  MOVLW  56
03CD:  MOVWF  04
03CE:  BCF    03.7
03CF:  MOVF   59,W
03D0:  MOVWF  66
03D1:  MOVF   58,W
03D2:  MOVWF  65
03D3:  MOVF   57,W
03D4:  MOVWF  64
03D5:  MOVF   56,W
03D6:  MOVWF  63
03D7:  MOVF   62,W
03D8:  MOVWF  6A
03D9:  MOVF   61,W
03DA:  MOVWF  69
03DB:  MOVF   60,W
03DC:  MOVWF  68
03DD:  MOVF   5F,W
03DE:  MOVWF  67
03DF:  CALL   314
03E0:  MOVF   78,W
03E1:  MOVF   77,F
03E2:  BTFSS  03.2
03E3:  GOTO   3F7
03E4:  INCF   5A,W
03E5:  SUBWF  5D,W
03E6:  BTFSC  03.2
03E7:  GOTO   3F7
03E8:  MOVF   5B,W
03E9:  BTFSC  03.2
03EA:  GOTO   3F9
03EB:  ANDLW  0F
03EC:  SUBWF  5D,W
03ED:  BTFSC  03.2
03EE:  GOTO   3F1
03EF:  BTFSC  03.0
03F0:  GOTO   42D
03F1:  BTFSC  5B.7
03F2:  GOTO   42D
03F3:  BTFSC  5B.6
03F4:  GOTO   3F9
03F5:  MOVLW  20
03F6:  GOTO   428
03F7:  MOVLW  20
03F8:  ANDWF  5B,F
03F9:  BTFSS  5B.5
03FA:  GOTO   408
03FB:  BCF    5B.5
03FC:  MOVF   5A,W
03FD:  BTFSS  03.2
03FE:  DECF   5B,F
03FF:  MOVF   77,W
0400:  MOVWF  5B
0401:  MOVLW  2D
0402:  BTFSS  0C.4
0403:  GOTO   402
0404:  MOVWF  19
0405:  MOVF   5B,W
0406:  MOVWF  77
0407:  CLRF   5B
0408:  MOVF   5A,W
0409:  SUBWF  5D,W
040A:  BTFSS  03.2
040B:  GOTO   417
040C:  MOVF   77,W
040D:  MOVWF  5B
040E:  MOVLW  2E
040F:  BTFSS  0C.4
0410:  GOTO   40F
0411:  MOVWF  19
0412:  MOVF   5B,W
0413:  MOVWF  77
0414:  MOVLW  20
0415:  ANDWF  5B,F
0416:  MOVLW  00
0417:  MOVLW  30
0418:  BTFSS  5B.5
0419:  GOTO   428
041A:  BCF    5B.5
041B:  MOVF   5A,W
041C:  BTFSS  03.2
041D:  DECF   5B,F
041E:  MOVF   77,W
041F:  MOVWF  5B
0420:  MOVLW  2D
0421:  BTFSS  0C.4
0422:  GOTO   421
0423:  MOVWF  19
0424:  MOVF   5B,W
0425:  MOVWF  77
0426:  CLRF   5B
0427:  MOVLW  30
0428:  ADDWF  77,F
0429:  MOVF   77,W
042A:  BTFSS  0C.4
042B:  GOTO   42A
042C:  MOVWF  19
042D:  BCF    03.1
042E:  MOVF   62,W
042F:  MOVWF  66
0430:  MOVF   61,W
0431:  MOVWF  65
0432:  MOVF   60,W
0433:  MOVWF  64
0434:  MOVF   5F,W
0435:  MOVWF  63
0436:  CLRF   6A
0437:  CLRF   69
0438:  CLRF   68
0439:  MOVLW  0A
043A:  MOVWF  67
043B:  CALL   314
043C:  MOVF   7A,W
043D:  MOVWF  62
043E:  MOVF   79,W
043F:  MOVWF  61
0440:  MOVF   78,W
0441:  MOVWF  60
0442:  MOVF   77,W
0443:  MOVWF  5F
0444:  DECFSZ 5D,F
0445:  GOTO   3CB
0446:  RETURN
0447:  MOVF   0B,W
0448:  MOVWF  56
0449:  BCF    0B.7
044A:  BSF    03.5
044B:  BSF    03.6
044C:  BSF    0C.7
044D:  BSF    0C.0
044E:  NOP
044F:  NOP
0450:  BCF    03.5
0451:  BCF    03.6
0452:  BTFSC  56.7
0453:  BSF    0B.7
0454:  BSF    03.6
0455:  MOVF   0C,W
0456:  ANDLW  7F
0457:  BTFSC  03.2
0458:  GOTO   49D
0459:  BCF    03.6
045A:  MOVWF  56
045B:  BSF    03.6
045C:  MOVF   0D,W
045D:  BCF    03.6
045E:  MOVWF  57
045F:  BSF    03.6
0460:  MOVF   0F,W
0461:  BCF    03.6
0462:  MOVWF  58
0463:  MOVF   56,W
0464:  BTFSS  0C.4
0465:  GOTO   464
0466:  MOVWF  19
0467:  MOVF   57,W
0468:  BSF    03.6
0469:  MOVWF  0D
046A:  BCF    03.6
046B:  MOVF   58,W
046C:  BSF    03.6
046D:  MOVWF  0F
046E:  BCF    03.6
046F:  MOVF   0B,W
0470:  MOVWF  59
0471:  BCF    0B.7
0472:  BSF    03.5
0473:  BSF    03.6
0474:  BSF    0C.7
0475:  BSF    0C.0
0476:  NOP
0477:  NOP
0478:  BCF    03.5
0479:  BCF    03.6
047A:  BTFSC  59.7
047B:  BSF    0B.7
047C:  BSF    03.6
047D:  RLF    0C,W
047E:  RLF    0E,W
047F:  ANDLW  7F
0480:  BTFSC  03.2
0481:  GOTO   49D
0482:  BCF    03.6
0483:  MOVWF  56
0484:  BSF    03.6
0485:  MOVF   0D,W
0486:  BCF    03.6
0487:  MOVWF  57
0488:  BSF    03.6
0489:  MOVF   0F,W
048A:  BCF    03.6
048B:  MOVWF  58
048C:  MOVF   56,W
048D:  BTFSS  0C.4
048E:  GOTO   48D
048F:  MOVWF  19
0490:  MOVF   57,W
0491:  BSF    03.6
0492:  MOVWF  0D
0493:  BCF    03.6
0494:  MOVF   58,W
0495:  BSF    03.6
0496:  MOVWF  0F
0497:  INCF   0D,F
0498:  BTFSC  03.2
0499:  INCF   0F,F
049A:  BCF    03.6
049B:  GOTO   447
049C:  BSF    03.6
049D:  BCF    03.6
049E:  BSF    0A.3
049F:  BCF    0A.4
04A0:  GOTO   0A2 (RETURN)
04A1:  MOVLW  8E
04A2:  MOVWF  77
04A3:  MOVF   57,W
04A4:  MOVWF  78
04A5:  MOVF   56,W
04A6:  MOVWF  79
04A7:  CLRF   7A
04A8:  MOVF   78,F
04A9:  BTFSS  03.2
04AA:  GOTO   4B5
04AB:  MOVF   79,W
04AC:  MOVWF  78
04AD:  CLRF   79
04AE:  MOVLW  08
04AF:  SUBWF  77,F
04B0:  MOVF   78,F
04B1:  BTFSS  03.2
04B2:  GOTO   4B5
04B3:  CLRF   77
04B4:  GOTO   4BD
04B5:  BCF    03.0
04B6:  BTFSC  78.7
04B7:  GOTO   4BC
04B8:  RLF    79,F
04B9:  RLF    78,F
04BA:  DECF   77,F
04BB:  GOTO   4B5
04BC:  BCF    78.7
04BD:  BSF    0A.3
04BE:  BCF    0A.4
04BF:  GOTO   0A8 (RETURN)
04C0:  MOVLW  80
04C1:  BTFSC  03.1
04C2:  XORWF  5F,F
04C3:  CLRF   64
04C4:  CLRF   65
04C5:  MOVF   5B,W
04C6:  MOVWF  63
04C7:  MOVF   5F,W
04C8:  XORWF  63,F
04C9:  MOVF   5A,W
04CA:  BTFSC  03.2
04CB:  GOTO   5B0
04CC:  MOVWF  62
04CD:  MOVWF  77
04CE:  MOVF   5E,W
04CF:  BTFSC  03.2
04D0:  GOTO   5B9
04D1:  SUBWF  62,F
04D2:  BTFSC  03.2
04D3:  GOTO   555
04D4:  BTFSS  03.0
04D5:  GOTO   513
04D6:  MOVF   5F,W
04D7:  MOVWF  68
04D8:  BSF    68.7
04D9:  MOVF   60,W
04DA:  MOVWF  67
04DB:  MOVF   61,W
04DC:  MOVWF  66
04DD:  CLRF   65
04DE:  BCF    03.0
04DF:  RRF    68,F
04E0:  RRF    67,F
04E1:  RRF    66,F
04E2:  RRF    65,F
04E3:  DECFSZ 62,F
04E4:  GOTO   4DD
04E5:  BTFSS  63.7
04E6:  GOTO   4EA
04E7:  BSF    64.0
04E8:  GOTO   5CD
04E9:  BCF    64.0
04EA:  BCF    62.0
04EB:  BSF    64.4
04EC:  MOVLW  5D
04ED:  MOVWF  04
04EE:  BCF    03.7
04EF:  GOTO   5E2
04F0:  BCF    64.4
04F1:  BTFSC  63.7
04F2:  GOTO   4FD
04F3:  BTFSS  62.0
04F4:  GOTO   508
04F5:  RRF    68,F
04F6:  RRF    67,F
04F7:  RRF    66,F
04F8:  RRF    65,F
04F9:  INCF   77,F
04FA:  BTFSC  03.2
04FB:  GOTO   5C8
04FC:  GOTO   508
04FD:  BTFSC  68.7
04FE:  GOTO   50B
04FF:  BCF    03.0
0500:  RLF    65,F
0501:  RLF    66,F
0502:  RLF    67,F
0503:  RLF    68,F
0504:  DECF   77,F
0505:  BTFSC  03.2
0506:  GOTO   5C8
0507:  GOTO   4FD
0508:  BSF    64.6
0509:  GOTO   575
050A:  BCF    64.6
050B:  MOVF   5B,W
050C:  MOVWF  63
050D:  BTFSS  63.7
050E:  GOTO   511
050F:  BSF    68.7
0510:  GOTO   5C1
0511:  BCF    68.7
0512:  GOTO   5C1
0513:  MOVF   5E,W
0514:  MOVWF  62
0515:  MOVWF  77
0516:  MOVF   5A,W
0517:  SUBWF  62,F
0518:  MOVF   5B,W
0519:  MOVWF  68
051A:  BSF    68.7
051B:  MOVF   5C,W
051C:  MOVWF  67
051D:  MOVF   5D,W
051E:  MOVWF  66
051F:  CLRF   65
0520:  BCF    03.0
0521:  RRF    68,F
0522:  RRF    67,F
0523:  RRF    66,F
0524:  RRF    65,F
0525:  DECFSZ 62,F
0526:  GOTO   51F
0527:  BTFSS  63.7
0528:  GOTO   52C
0529:  BSF    64.1
052A:  GOTO   5CD
052B:  BCF    64.1
052C:  BCF    62.0
052D:  BSF    64.5
052E:  MOVLW  61
052F:  MOVWF  04
0530:  BCF    03.7
0531:  GOTO   5E2
0532:  BCF    64.5
0533:  BTFSC  63.7
0534:  GOTO   53F
0535:  BTFSS  62.0
0536:  GOTO   54A
0537:  RRF    68,F
0538:  RRF    67,F
0539:  RRF    66,F
053A:  RRF    65,F
053B:  INCF   77,F
053C:  BTFSC  03.2
053D:  GOTO   5C8
053E:  GOTO   54A
053F:  BTFSC  68.7
0540:  GOTO   54D
0541:  BCF    03.0
0542:  RLF    65,F
0543:  RLF    66,F
0544:  RLF    67,F
0545:  RLF    68,F
0546:  DECF   77,F
0547:  BTFSC  03.2
0548:  GOTO   5C8
0549:  GOTO   53F
054A:  BSF    64.7
054B:  GOTO   575
054C:  BCF    64.7
054D:  MOVF   5F,W
054E:  MOVWF  63
054F:  BTFSS  63.7
0550:  GOTO   553
0551:  BSF    68.7
0552:  GOTO   5C1
0553:  BCF    68.7
0554:  GOTO   5C1
0555:  MOVF   5F,W
0556:  MOVWF  68
0557:  BSF    68.7
0558:  MOVF   60,W
0559:  MOVWF  67
055A:  MOVF   61,W
055B:  MOVWF  66
055C:  BTFSS  63.7
055D:  GOTO   562
055E:  BCF    68.7
055F:  BSF    64.2
0560:  GOTO   5CD
0561:  BCF    64.2
0562:  CLRF   65
0563:  BCF    62.0
0564:  MOVLW  5D
0565:  MOVWF  04
0566:  BCF    03.7
0567:  GOTO   5E2
0568:  BTFSC  63.7
0569:  GOTO   58B
056A:  MOVF   5B,W
056B:  MOVWF  63
056C:  BTFSS  62.0
056D:  GOTO   575
056E:  RRF    68,F
056F:  RRF    67,F
0570:  RRF    66,F
0571:  RRF    65,F
0572:  INCF   77,F
0573:  BTFSC  03.2
0574:  GOTO   5C8
0575:  BTFSS  65.7
0576:  GOTO   586
0577:  INCF   66,F
0578:  BTFSS  03.2
0579:  GOTO   586
057A:  INCF   67,F
057B:  BTFSS  03.2
057C:  GOTO   586
057D:  INCF   68,F
057E:  BTFSS  03.2
057F:  GOTO   586
0580:  RRF    68,F
0581:  RRF    67,F
0582:  RRF    66,F
0583:  INCF   77,F
0584:  BTFSC  03.2
0585:  GOTO   5C8
0586:  BTFSC  64.6
0587:  GOTO   50A
0588:  BTFSC  64.7
0589:  GOTO   54C
058A:  GOTO   5AA
058B:  MOVLW  80
058C:  XORWF  68,F
058D:  BTFSS  68.7
058E:  GOTO   593
058F:  GOTO   5CD
0590:  MOVF   5F,W
0591:  MOVWF  63
0592:  GOTO   5A0
0593:  MOVF   5B,W
0594:  MOVWF  63
0595:  MOVF   68,F
0596:  BTFSS  03.2
0597:  GOTO   5A0
0598:  MOVF   67,F
0599:  BTFSS  03.2
059A:  GOTO   5A0
059B:  MOVF   66,F
059C:  BTFSS  03.2
059D:  GOTO   5A0
059E:  CLRF   77
059F:  GOTO   5C1
05A0:  BTFSC  68.7
05A1:  GOTO   5AA
05A2:  BCF    03.0
05A3:  RLF    65,F
05A4:  RLF    66,F
05A5:  RLF    67,F
05A6:  RLF    68,F
05A7:  DECFSZ 77,F
05A8:  GOTO   5A0
05A9:  GOTO   5C8
05AA:  BTFSS  63.7
05AB:  GOTO   5AE
05AC:  BSF    68.7
05AD:  GOTO   5C1
05AE:  BCF    68.7
05AF:  GOTO   5C1
05B0:  MOVF   5E,W
05B1:  MOVWF  77
05B2:  MOVF   5F,W
05B3:  MOVWF  68
05B4:  MOVF   60,W
05B5:  MOVWF  67
05B6:  MOVF   61,W
05B7:  MOVWF  66
05B8:  GOTO   5C1
05B9:  MOVF   5A,W
05BA:  MOVWF  77
05BB:  MOVF   5B,W
05BC:  MOVWF  68
05BD:  MOVF   5C,W
05BE:  MOVWF  67
05BF:  MOVF   5D,W
05C0:  MOVWF  66
05C1:  MOVF   68,W
05C2:  MOVWF  78
05C3:  MOVF   67,W
05C4:  MOVWF  79
05C5:  MOVF   66,W
05C6:  MOVWF  7A
05C7:  GOTO   600
05C8:  CLRF   77
05C9:  CLRF   78
05CA:  CLRF   79
05CB:  CLRF   7A
05CC:  GOTO   600
05CD:  CLRF   65
05CE:  COMF   66,F
05CF:  COMF   67,F
05D0:  COMF   68,F
05D1:  COMF   65,F
05D2:  INCF   65,F
05D3:  BTFSS  03.2
05D4:  GOTO   5DB
05D5:  INCF   66,F
05D6:  BTFSS  03.2
05D7:  GOTO   5DB
05D8:  INCF   67,F
05D9:  BTFSC  03.2
05DA:  INCF   68,F
05DB:  BTFSC  64.0
05DC:  GOTO   4E9
05DD:  BTFSC  64.1
05DE:  GOTO   52B
05DF:  BTFSC  64.2
05E0:  GOTO   561
05E1:  GOTO   590
05E2:  MOVF   00,W
05E3:  ADDWF  66,F
05E4:  BTFSS  03.0
05E5:  GOTO   5EC
05E6:  INCF   67,F
05E7:  BTFSS  03.2
05E8:  GOTO   5EC
05E9:  INCF   68,F
05EA:  BTFSC  03.2
05EB:  BSF    62.0
05EC:  DECF   04,F
05ED:  MOVF   00,W
05EE:  ADDWF  67,F
05EF:  BTFSS  03.0
05F0:  GOTO   5F4
05F1:  INCF   68,F
05F2:  BTFSC  03.2
05F3:  BSF    62.0
05F4:  DECF   04,F
05F5:  MOVF   00,W
05F6:  BTFSS  00.7
05F7:  XORLW  80
05F8:  ADDWF  68,F
05F9:  BTFSC  03.0
05FA:  BSF    62.0
05FB:  BTFSC  64.4
05FC:  GOTO   4F0
05FD:  BTFSC  64.5
05FE:  GOTO   532
05FF:  GOTO   568
0600:  RETURN
0601:  MOVF   57,W
0602:  MOVWF  5E
0603:  MOVF   5B,W
0604:  XORWF  5E,F
0605:  BTFSS  5E.7
0606:  GOTO   60C
0607:  BCF    03.2
0608:  BCF    03.0
0609:  BTFSC  57.7
060A:  BSF    03.0
060B:  GOTO   63F
060C:  MOVF   57,W
060D:  MOVWF  5E
060E:  MOVF   5A,W
060F:  MOVWF  5F
0610:  MOVF   56,W
0611:  SUBWF  5F,F
0612:  BTFSC  03.2
0613:  GOTO   61A
0614:  BTFSS  5E.7
0615:  GOTO   63F
0616:  MOVF   03,W
0617:  XORLW  01
0618:  MOVWF  03
0619:  GOTO   63F
061A:  MOVF   5B,W
061B:  MOVWF  5F
061C:  MOVF   57,W
061D:  SUBWF  5F,F
061E:  BTFSC  03.2
061F:  GOTO   626
0620:  BTFSS  5E.7
0621:  GOTO   63F
0622:  MOVF   03,W
0623:  XORLW  01
0624:  MOVWF  03
0625:  GOTO   63F
0626:  MOVF   5C,W
0627:  MOVWF  5F
0628:  MOVF   58,W
0629:  SUBWF  5F,F
062A:  BTFSC  03.2
062B:  GOTO   632
062C:  BTFSS  5E.7
062D:  GOTO   63F
062E:  MOVF   03,W
062F:  XORLW  01
0630:  MOVWF  03
0631:  GOTO   63F
0632:  MOVF   5D,W
0633:  MOVWF  5F
0634:  MOVF   59,W
0635:  SUBWF  5F,F
0636:  BTFSC  03.2
0637:  GOTO   63E
0638:  BTFSS  5E.7
0639:  GOTO   63F
063A:  MOVF   03,W
063B:  XORLW  01
063C:  MOVWF  03
063D:  GOTO   63F
063E:  BCF    03.0
063F:  RETURN
0640:  MOVLW  8E
0641:  MOVWF  77
0642:  MOVF   56,W
0643:  SUBWF  77,F
0644:  MOVF   57,W
0645:  MOVWF  79
0646:  MOVF   58,W
0647:  MOVWF  78
0648:  BSF    79.7
0649:  MOVF   77,F
064A:  BTFSC  03.2
064B:  GOTO   657
064C:  BCF    03.0
064D:  MOVF   79,F
064E:  BTFSS  03.2
064F:  GOTO   653
0650:  MOVF   78,F
0651:  BTFSC  03.2
0652:  GOTO   657
0653:  RRF    79,F
0654:  RRF    78,F
0655:  DECFSZ 77,F
0656:  GOTO   64C
0657:  BTFSS  57.7
0658:  GOTO   65E
0659:  COMF   78,F
065A:  COMF   79,F
065B:  INCF   78,F
065C:  BTFSC  03.2
065D:  INCF   79,F
065E:  BSF    0A.3
065F:  BCF    0A.4
0660:  GOTO   1AA (RETURN)
0661:  MOVF   5D,W
0662:  CLRF   78
0663:  SUBWF  5C,W
0664:  BTFSC  03.0
0665:  GOTO   669
0666:  MOVF   5C,W
0667:  MOVWF  77
0668:  GOTO   675
0669:  CLRF   77
066A:  MOVLW  08
066B:  MOVWF  5E
066C:  RLF    5C,F
066D:  RLF    77,F
066E:  MOVF   5D,W
066F:  SUBWF  77,W
0670:  BTFSC  03.0
0671:  MOVWF  77
0672:  RLF    78,F
0673:  DECFSZ 5E,F
0674:  GOTO   66C
0675:  RETURN
0676:  MOVLW  20
0677:  BTFSS  57.4
0678:  MOVLW  30
0679:  MOVWF  58
067A:  MOVF   56,W
067B:  MOVWF  77
067C:  BTFSS  56.7
067D:  GOTO   686
067E:  COMF   77,F
067F:  INCF   77,F
0680:  MOVF   77,W
0681:  MOVWF  56
0682:  MOVLW  2D
0683:  MOVWF  58
0684:  BSF    57.7
0685:  BSF    57.0
0686:  MOVF   56,W
0687:  MOVWF  5C
0688:  MOVLW  64
0689:  MOVWF  5D
068A:  CALL   661
068B:  MOVF   77,W
068C:  MOVWF  56
068D:  MOVLW  30
068E:  ADDWF  78,W
068F:  MOVWF  59
0690:  MOVF   56,W
0691:  MOVWF  5C
0692:  MOVLW  0A
0693:  MOVWF  5D
0694:  CALL   661
0695:  MOVLW  30
0696:  ADDWF  77,W
0697:  MOVWF  5B
0698:  MOVLW  30
0699:  ADDWF  78,W
069A:  MOVWF  5A
069B:  MOVF   58,W
069C:  MOVWF  77
069D:  MOVLW  30
069E:  SUBWF  59,W
069F:  BTFSC  03.2
06A0:  GOTO   6A5
06A1:  BSF    57.1
06A2:  BTFSC  57.7
06A3:  BSF    57.2
06A4:  GOTO   6B9
06A5:  MOVF   58,W
06A6:  MOVWF  59
06A7:  MOVLW  20
06A8:  MOVWF  58
06A9:  MOVLW  30
06AA:  SUBWF  5A,W
06AB:  BTFSC  03.2
06AC:  GOTO   6B1
06AD:  BSF    57.0
06AE:  BTFSC  57.7
06AF:  BSF    57.1
06B0:  GOTO   6B9
06B1:  BTFSS  03.2
06B2:  BSF    57.0
06B3:  BTFSS  03.2
06B4:  GOTO   6B9
06B5:  MOVF   59,W
06B6:  MOVWF  5A
06B7:  MOVLW  20
06B8:  MOVWF  59
06B9:  BTFSC  57.2
06BA:  GOTO   6C0
06BB:  BTFSC  57.1
06BC:  GOTO   6C4
06BD:  BTFSC  57.0
06BE:  GOTO   6C8
06BF:  GOTO   6CC
06C0:  MOVF   58,W
06C1:  BTFSS  0C.4
06C2:  GOTO   6C1
06C3:  MOVWF  19
06C4:  MOVF   59,W
06C5:  BTFSS  0C.4
06C6:  GOTO   6C5
06C7:  MOVWF  19
06C8:  MOVF   5A,W
06C9:  BTFSS  0C.4
06CA:  GOTO   6C9
06CB:  MOVWF  19
06CC:  MOVF   5B,W
06CD:  BTFSS  0C.4
06CE:  GOTO   6CD
06CF:  MOVWF  19
06D0:  RETURN
....................  
.................... #list 
....................  
.................... #device ADC=10 
....................  
.................... #FUSES NOBROWNOUT               //No brownout reset 
.................... #FUSES NOLVP                    //No low voltage prgming, B3(PIC16) or B5(PIC18) used for I/O 
....................  
.................... #use delay(crystal=20000000) 
*
0086:  MOVLW  03
0087:  SUBWF  5E,F
0088:  BTFSS  03.0
0089:  GOTO   094
008A:  MOVLW  5E
008B:  MOVWF  04
008C:  BCF    03.7
008D:  MOVF   00,W
008E:  BTFSC  03.2
008F:  GOTO   094
0090:  GOTO   092
0091:  GOTO   092
0092:  DECFSZ 00,F
0093:  GOTO   091
0094:  RETURN
*
06D1:  MOVLW  56
06D2:  MOVWF  04
06D3:  BCF    03.7
06D4:  MOVF   00,W
06D5:  BTFSC  03.2
06D6:  GOTO   6E4
06D7:  MOVLW  06
06D8:  MOVWF  78
06D9:  CLRF   77
06DA:  DECFSZ 77,F
06DB:  GOTO   6DA
06DC:  DECFSZ 78,F
06DD:  GOTO   6D9
06DE:  MOVLW  7B
06DF:  MOVWF  77
06E0:  DECFSZ 77,F
06E1:  GOTO   6E0
06E2:  DECFSZ 00,F
06E3:  GOTO   6D7
06E4:  BSF    0A.3
06E5:  BCF    0A.4
06E6:  GOTO   229 (RETURN)
.................... #use rs232(baud=9600,parity=N,xmit=PIN_C6,rcv=PIN_C7,bits=8,stream=PORT1) 
....................  
.................... #define PIN_DS18B20_DATA PIN_B5  
.................... #include <ds18b20.c> 
.................... /////////////////////////////////////////////////////////////////////////// 
.................... ////                                                                   //// 
.................... ////                            ds18b20.c                              //// 
.................... ////                                                                   //// 
.................... //// Driver for Dallas DS18B20 digital thermometer, with Dallas one    //// 
.................... //// wire interface.                                                   //// 
.................... ////                                                                   //// 
.................... ////  ds18b20_init()                                                   //// 
.................... ////     Init the module and the driver.                               //// 
.................... ////                                                                   //// 
.................... ////  int1 = ds18b20_read(signed int16 *pTemp)                         //// 
.................... ////     Reads temperature from device and saves read value to pTemp   //// 
.................... ////     pointer.  Returns TRUE if we succesfully talked to the device //// 
.................... ////     and pTemp was updated; returns FALSE if there was an error    //// 
.................... ////     in communication and pTemp is not updated.                    //// 
.................... ////     This will deadlock the PICmicro while waiting for the         //// 
.................... ////     DS18B20 to return a conversion, which can take over 750ms.    //// 
.................... ////     Also this routine may get stuck in an infinite loop and not   //// 
.................... ////     return if there is a problem with the bus.                    //// 
.................... ////     To limit the deadlocking, use ds18b20_start_conversion() and  //// 
.................... ////     ds18b20_get_conversion() instead.                             //// 
.................... ////     The temperature returned is degrees C, but fractional;        //// 
.................... ////     divide by 16 to get the integer numerator.                    //// 
.................... ////                                                                   //// 
.................... //// int1 ds18b20_start_conversion(void)                               //// 
.................... ////     This starts a temperature conversion on the DS18B20.          //// 
.................... ////     Returns TRUE if communication was successful, FALSE if there  //// 
.................... ////     was something wrong with the bus or the device.               //// 
.................... ////                                                                   //// 
.................... //// int1 ds18b20_get_conversion(signed int16 *pTemp)                  //// 
.................... ////     After a conversion is started, you can either wait for Tconv  //// 
.................... ////     (which is 750ms for max resolution conversion) or poll        //// 
.................... ////     the bus with ds18b20_read_bit() (if it returns non-zero       //// 
.................... ////     then conversion is finished).  Once conversion is finished    //// 
.................... ////     then this function reads the conversion stored on the         //// 
.................... ////     DS18B20 device.                                               //// 
.................... ////                                                                   //// 
.................... ////                            CONNECTIONS                            //// 
.................... ////                                                                   //// 
.................... //// PIN_DS18B20_DATA                                                  //// 
.................... ////     #define this to the PIC GPIO pin connected to the DS18B20's   //// 
.................... ////     data pin.                                                     //// 
.................... ////     Example:  #define PIN_DS18B20_DATA PIN_D0                     //// 
.................... ////                                                                   //// 
.................... /////////////////////////////////////////////////////////////////////////// 
.................... ////        (C) Copyright 1996,2016 Custom Computer Services           //// 
.................... //// This source code may only be used by licensed users of the CCS C  //// 
.................... //// compiler.  This source code may only be distributed to other      //// 
.................... //// licensed users of the CCS C compiler.  No other use, reproduction //// 
.................... //// or distribution is permitted without written permission.          //// 
.................... //// Derivative programs created using this software in object code    //// 
.................... //// form are not restricted in any way.                               //// 
.................... ////                                                                   //// 
.................... //// http://www.ccsinfo.com                                            //// 
.................... /////////////////////////////////////////////////////////////////////////// 
....................  
.................... /// begin config ////////////////////////////////////////////////////////// 
....................  
.................... #ifndef PIN_DS18B20_DATA 
.................... #define PIN_DS18B20_DATA PIN_B5 
.................... #endif 
....................  
.................... /// end config //////////////////////////////////////////////////////////// 
....................  
....................  
.................... void ds18b20_init(void) 
.................... { 
....................    output_float(PIN_DS18B20_DATA); 
.................... } 
....................  
.................... /* 
.................... This method will initialize the DS18B20 for transactions to occur 
.................... PARAMS: none 
.................... RETURNS: TRUE if start pulse response read from unit 
.................... */ 
.................... int1 ds18b20_start(void) 
*
0095:  BCF    5C.0
.................... { 
....................    int1 ret = FALSE; 
....................     
....................    output_low(PIN_DS18B20_DATA); 
0096:  BSF    03.5
0097:  BCF    06.5
0098:  BCF    03.5
0099:  BCF    06.5
....................    delay_us(500); 
009A:  MOVLW  02
009B:  MOVWF  5D
009C:  MOVLW  F9
009D:  MOVWF  5E
009E:  CALL   086
009F:  DECFSZ 5D,F
00A0:  GOTO   09C
....................    output_float(PIN_DS18B20_DATA); 
00A1:  BSF    03.5
00A2:  BSF    06.5
....................    delay_us(70);//wait to read the SLAVES response 
00A3:  MOVLW  74
00A4:  MOVWF  77
00A5:  DECFSZ 77,F
00A6:  GOTO   0A5
00A7:  NOP
....................    if (!input(PIN_DS18B20_DATA)) 
00A8:  BSF    06.5
00A9:  BCF    03.5
00AA:  BTFSC  06.5
00AB:  GOTO   0B4
....................    { 
....................       ret = TRUE; 
00AC:  BSF    5C.0
....................       delay_us(430); 
00AD:  MOVLW  02
00AE:  MOVWF  5D
00AF:  MOVLW  D6
00B0:  MOVWF  5E
00B1:  CALL   086
00B2:  DECFSZ 5D,F
00B3:  GOTO   0AF
....................    } 
....................    return(ret); 
00B4:  MOVLW  00
00B5:  BTFSC  5C.0
00B6:  MOVLW  01
00B7:  MOVWF  78
00B8:  RETURN
.................... } 
.................... /* 
.................... This method will write a bit to the DS18B20 following write time slots 
.................... PARAMS: int1 value to write 
.................... RETURNS: none 
.................... */ 
.................... void ds18b20_write(int1 value) 
.................... { 
....................    output_low(PIN_DS18B20_DATA);//drives output low for master 
*
00C7:  BSF    03.5
00C8:  BCF    06.5
00C9:  BCF    03.5
00CA:  BCF    06.5
....................    delay_us(2);//delays for 2us 
00CB:  MOVLW  03
00CC:  MOVWF  77
00CD:  DECFSZ 77,F
00CE:  GOTO   0CD
....................    output_bit(PIN_DS18B20_DATA,value);//sets MASTER to input mode to release pin 
00CF:  MOVF   5F,F
00D0:  BTFSS  03.2
00D1:  GOTO   0D4
00D2:  BCF    06.5
00D3:  GOTO   0D5
00D4:  BSF    06.5
00D5:  BSF    03.5
00D6:  BCF    06.5
....................    delay_us(60); 
00D7:  MOVLW  63
00D8:  MOVWF  77
00D9:  DECFSZ 77,F
00DA:  GOTO   0D9
00DB:  GOTO   0DC
....................    output_float(PIN_DS18B20_DATA);//sets MASTER to input mode to release pin 
00DC:  BSF    06.5
....................    delay_us(2);//delays for 2 microseconds which is within 15us max 
00DD:  MOVLW  03
00DE:  MOVWF  77
00DF:  DECFSZ 77,F
00E0:  GOTO   0DF
.................... } 
.................... /* 
.................... This method will call write() for each bit of a byte to be sent 
.................... PARAMS: BYTE value to write 
.................... RETURNS: none 
.................... */ 
.................... void ds18b20_write_byte(unsigned int8 value) 
.................... { 
....................    unsigned int8 i; 
....................    for(i=1;i<=8;++i) 
*
00B9:  MOVLW  01
00BA:  MOVWF  5D
00BB:  MOVF   5D,W
00BC:  SUBLW  08
00BD:  BTFSS  03.0
00BE:  GOTO   0E4
....................    { 
....................       ds18b20_write(shift_right(&value,1,0)); 
00BF:  BCF    03.0
00C0:  RRF    5C,F
00C1:  MOVLW  00
00C2:  BTFSC  03.0
00C3:  MOVLW  01
00C4:  MOVWF  5E
00C5:  MOVF   5E,W
00C6:  MOVWF  5F
*
00E1:  BCF    03.5
00E2:  INCF   5D,F
00E3:  GOTO   0BB
....................    } 
00E4:  RETURN
.................... } 
.................... /* 
.................... This method will read a value from the DS18B20 following the read time slots 
.................... PARAMS: none 
.................... RETURNS: A bit from the DS1993 
.................... */ 
.................... int1 ds18b20_read_bit(void) 
.................... { 
....................    int1 value; 
....................    output_low(PIN_DS18B20_DATA);//drives output low for master 
00E5:  BSF    03.5
00E6:  BCF    06.5
00E7:  BCF    03.5
00E8:  BCF    06.5
....................    delay_us(2); 
00E9:  MOVLW  03
00EA:  MOVWF  77
00EB:  DECFSZ 77,F
00EC:  GOTO   0EB
....................    output_float(PIN_DS18B20_DATA);//sets MASTER to input mode to release pin 
00ED:  BSF    03.5
00EE:  BSF    06.5
....................    delay_us(8);//waits to read 
00EF:  MOVLW  0D
00F0:  MOVWF  77
00F1:  DECFSZ 77,F
00F2:  GOTO   0F1
....................    value=input(PIN_DS18B20_DATA); 
00F3:  BSF    06.5
00F4:  BCF    03.5
00F5:  BCF    5E.0
00F6:  BTFSC  06.5
00F7:  BSF    5E.0
....................    delay_us(120); 
00F8:  MOVLW  C7
00F9:  MOVWF  77
00FA:  DECFSZ 77,F
00FB:  GOTO   0FA
00FC:  GOTO   0FD
....................    return value; 
00FD:  MOVLW  00
00FE:  BTFSC  5E.0
00FF:  MOVLW  01
0100:  MOVWF  78
0101:  RETURN
.................... } 
.................... /* 
.................... This method will call read() and update a byte bit by bit 
.................... PARAMS: none 
.................... RETURNS: A byte from the DS1993 
.................... */ 
.................... unsigned int8 ds18b20_read_byte() 
.................... { 
....................    unsigned int8 i, value; 
....................     
....................    for(i=0; i<8; i++) 
0102:  CLRF   5C
0103:  MOVF   5C,W
0104:  SUBLW  07
0105:  BTFSS  03.0
0106:  GOTO   111
....................    { 
....................       shift_right(&value,1,ds18b20_read_bit()); 
0107:  CALL   0E5
0108:  MOVF   78,F
0109:  BTFSS  03.2
010A:  GOTO   10D
010B:  BCF    03.0
010C:  GOTO   10E
010D:  BSF    03.0
010E:  RRF    5D,F
010F:  INCF   5C,F
0110:  GOTO   103
....................    } 
....................    return value; 
0111:  MOVF   5D,W
0112:  MOVWF  78
0113:  RETURN
.................... } 
....................  
.................... int1 ds18b20_start_conversion(void) 
.................... { 
....................    if (!ds18b20_start()) 
0114:  CALL   095
0115:  MOVF   78,F
0116:  BTFSS  03.2
0117:  GOTO   11B
....................       return(FALSE); 
0118:  MOVLW  00
0119:  MOVWF  78
011A:  GOTO   123
....................    ds18b20_write_byte(0xCC); 
011B:  MOVLW  CC
011C:  MOVWF  5C
011D:  CALL   0B9
....................    ds18b20_write_byte(0x44); 
011E:  MOVLW  44
011F:  MOVWF  5C
0120:  CALL   0B9
....................    return(TRUE); 
0121:  MOVLW  01
0122:  MOVWF  78
.................... } 
....................  
.................... int1 ds18b20_get_conversion(signed int16 *pTemp) 
.................... { 
....................    union  
....................    { 
....................       unsigned int8 b[2]; 
....................       signed int16 w; 
....................    } ret; 
....................     
....................    if (!ds18b20_start()) 
*
0131:  CALL   095
0132:  MOVF   78,F
0133:  BTFSS  03.2
0134:  GOTO   138
....................       return(FALSE); 
0135:  MOVLW  00
0136:  MOVWF  78
0137:  GOTO   151
....................        
....................    ds18b20_write_byte(0xCC); 
0138:  MOVLW  CC
0139:  MOVWF  5C
013A:  CALL   0B9
....................    ds18b20_write_byte(0xBE); 
013B:  MOVLW  BE
013C:  MOVWF  5C
013D:  CALL   0B9
....................    ret.b[0] = ds18b20_read_byte(); 
013E:  CALL   102
013F:  MOVF   78,W
0140:  MOVWF  5A
....................    ret.b[1] = ds18b20_read_byte(); 
0141:  CALL   102
0142:  MOVF   78,W
0143:  MOVWF  5B
....................     
....................    *pTemp = ret.w; 
0144:  MOVF   58,W
0145:  MOVWF  04
0146:  BCF    03.7
0147:  BTFSC  59.0
0148:  BSF    03.7
0149:  INCF   04,F
014A:  MOVF   5B,W
014B:  MOVWF  00
014C:  DECF   04,F
014D:  MOVF   5A,W
014E:  MOVWF  00
....................     
....................    return(TRUE); 
014F:  MOVLW  01
0150:  MOVWF  78
.................... } 
....................  
.................... int1 ds18b20_read(signed int16 *pTemp) 
.................... { 
....................    if (!ds18b20_start_conversion()) 
*
0123:  MOVF   78,F
0124:  BTFSS  03.2
0125:  GOTO   129
....................       return(FALSE); 
0126:  MOVLW  00
0127:  MOVWF  78
0128:  GOTO   152
....................        
....................    while(!ds18b20_read_bit()); 
0129:  CALL   0E5
012A:  MOVF   78,F
012B:  BTFSC  03.2
012C:  GOTO   129
....................        
....................    return(ds18b20_get_conversion(pTemp)); 
012D:  MOVF   57,W
012E:  MOVWF  59
012F:  MOVF   56,W
0130:  MOVWF  58
*
0151:  MOVF   78,W
0152:  BSF    0A.3
0153:  BCF    0A.4
0154:  GOTO   053 (RETURN)
.................... } 
....................  
.................... /* 
.................... This method will initiate a temperature read (12 bit resolution) and convert  
.................... of the module by skipping the ROM of the module and reading from  
.................... the scratch pad 
.................... PARAMS: pTemp - where temperature is stored if valid read 
.................... RETURNS: TRUE if ds18b20 is on bus and acting properly 
.................... */ 
.................... /* 
.................... int1 ds18b20_read(signed int16 *pTemp) 
.................... { 
....................    unsigned int8 busy = 0; 
....................    union  
....................    { 
....................       unsigned int8 b[2]; 
....................       signed int16 w; 
....................    } ret; 
....................     
....................    if (!ds18b20_start()) 
....................       return(FALSE); 
....................    ds18b20_write_byte(0xCC); 
....................    ds18b20_write_byte(0x44); 
....................    while(busy==0) 
....................       busy=ds18b20_read_byte(); 
....................        
....................    if (!ds18b20_start()) 
....................       return(FALSE); 
....................    ds18b20_write_byte(0xCC); 
....................    ds18b20_write_byte(0xBE); 
....................    ret.b[0] = ds18b20_read_byte(); 
....................    ret.b[1] = ds18b20_read_byte(); 
....................     
....................    return(ret.w); 
.................... } 
.................... */ 
....................  
....................  
....................  
.................... signed int16 raw_temp; 
.................... float temp; 
.................... char buffer[2] = ""; 
*
083C:  BCF    03.5
083D:  CLRF   31
.................... int i = 0, s = 0; 
.................... int cont_zero = 0; 
.................... int tempo_on = 0; 
....................  
....................  
.................... unsigned int setpoint = 45; 
.................... /* 
.................... float Kp = 55.2; 
.................... float Ti = 6; 
.................... float T = 1.5; 
.................... */ 
....................  
.................... float Kp = 108.0; 
.................... float Ti = 800.0; 
.................... float T = 2.0; 
....................  
.................... float ultimo_erro = 0; 
.................... double PID = 0; 
.................... float erro_atual = 0; 
.................... float ultimo_controle = 0; 
....................  
.................... #INT_EXT 
.................... void  EXT_isr(void)  
.................... { 
....................    cont_zero++; 
*
004F:  INCF   35,F
....................     
....................     if (cont_zero > 10) { 
0050:  MOVF   35,W
0051:  SUBLW  0A
0052:  BTFSC  03.0
0053:  GOTO   059
....................       cont_zero = 0; 
0054:  CLRF   35
....................       output_low(PIN_B1); 
0055:  BSF    03.5
0056:  BCF    06.1
0057:  BCF    03.5
0058:  BCF    06.1
....................    } 
....................     
....................    if (cont_zero == tempo_on){ 
0059:  MOVF   36,W
005A:  SUBWF  35,W
005B:  BTFSS  03.2
005C:  GOTO   061
....................       output_high(PIN_B1); 
005D:  BSF    03.5
005E:  BCF    06.1
005F:  BCF    03.5
0060:  BSF    06.1
....................    } 
....................     
....................     
0061:  BCF    0B.1
0062:  BCF    0A.3
0063:  BCF    0A.4
0064:  GOTO   02B
.................... } 
....................  
.................... void main() 
*
0800:  MOVF   03,W
0801:  ANDLW  1F
0802:  MOVWF  03
0803:  MOVLW  81
0804:  BSF    03.5
0805:  MOVWF  19
0806:  MOVLW  A6
0807:  MOVWF  18
0808:  MOVLW  90
0809:  BCF    03.5
080A:  MOVWF  18
080B:  CLRF   33
080C:  CLRF   34
080D:  CLRF   35
080E:  CLRF   36
080F:  MOVLW  2D
0810:  MOVWF  37
0811:  CLRF   3B
0812:  CLRF   3A
0813:  MOVLW  58
0814:  MOVWF  39
0815:  MOVLW  85
0816:  MOVWF  38
0817:  CLRF   3F
0818:  CLRF   3E
0819:  MOVLW  48
081A:  MOVWF  3D
081B:  MOVLW  88
081C:  MOVWF  3C
081D:  CLRF   43
081E:  CLRF   42
081F:  CLRF   41
0820:  MOVLW  80
0821:  MOVWF  40
0822:  CLRF   47
0823:  CLRF   46
0824:  CLRF   45
0825:  CLRF   44
0826:  CLRF   4B
0827:  CLRF   4A
0828:  CLRF   49
0829:  CLRF   48
082A:  CLRF   4F
082B:  CLRF   4E
082C:  CLRF   4D
082D:  CLRF   4C
082E:  CLRF   53
082F:  CLRF   52
0830:  CLRF   51
0831:  CLRF   50
0832:  CLRF   55
0833:  CLRF   54
0834:  BSF    03.5
0835:  BSF    1F.0
0836:  BSF    1F.1
0837:  BSF    1F.2
0838:  BCF    1F.3
0839:  MOVLW  07
083A:  MOVWF  1C
083B:  BCF    03.7
.................... { 
....................    setup_adc_ports(AN0); 
*
083E:  BSF    03.5
083F:  BCF    1F.0
0840:  BSF    1F.1
0841:  BSF    1F.2
0842:  BSF    1F.3
....................    setup_adc(ADC_CLOCK_DIV_16); 
0843:  BSF    1F.6
0844:  BCF    03.5
0845:  BSF    1F.6
0846:  BCF    1F.7
0847:  BSF    03.5
0848:  BSF    1F.7
0849:  BCF    03.5
084A:  BSF    1F.0
....................  
....................    enable_interrupts(INT_EXT); 
084B:  BSF    0B.4
....................    enable_interrupts(GLOBAL); 
084C:  MOVLW  C0
084D:  IORWF  0B,F
....................  
....................    while(TRUE) 
....................    { 
....................       if(ds18b20_read(&raw_temp)) { 
084E:  CLRF   57
084F:  MOVLW  2B
0850:  MOVWF  56
0851:  BCF    0A.3
0852:  GOTO   114
0853:  BSF    0A.3
0854:  MOVF   78,F
0855:  BTFSC  03.2
0856:  GOTO   09A
....................       temp = (float)raw_temp / 16;               // Convert temperature raw value into degree Celsius (temp in C = raw/16)             // Go to column 5 row 2 
0857:  MOVF   2C,W
0858:  MOVWF  57
0859:  MOVF   2B,W
085A:  MOVWF  56
085B:  BCF    0A.3
085C:  GOTO   155
085D:  BSF    0A.3
085E:  MOVF   7A,W
085F:  MOVWF  59
0860:  MOVF   79,W
0861:  MOVWF  58
0862:  MOVF   78,W
0863:  MOVWF  57
0864:  MOVF   77,W
0865:  MOVWF  56
0866:  MOVF   59,W
0867:  MOVWF  61
0868:  MOVF   58,W
0869:  MOVWF  60
086A:  MOVF   57,W
086B:  MOVWF  5F
086C:  MOVF   56,W
086D:  MOVWF  5E
086E:  CLRF   65
086F:  CLRF   64
0870:  CLRF   63
0871:  MOVLW  83
0872:  MOVWF  62
0873:  BCF    0A.3
0874:  CALL   17C
0875:  BSF    0A.3
0876:  MOVF   7A,W
0877:  MOVWF  30
0878:  MOVF   79,W
0879:  MOVWF  2F
087A:  MOVF   78,W
087B:  MOVWF  2E
087C:  MOVF   77,W
087D:  MOVWF  2D
....................       fprintf(PORT1,"Temp: %f", temp); 
087E:  MOVLW  65
087F:  BSF    03.6
0880:  MOVWF  0D
0881:  MOVLW  00
0882:  MOVWF  0F
0883:  BCF    03.0
0884:  MOVLW  06
0885:  BCF    03.6
0886:  MOVWF  56
0887:  BCF    0A.3
0888:  CALL   246
0889:  BSF    0A.3
088A:  MOVLW  89
088B:  MOVWF  04
088C:  MOVF   30,W
088D:  MOVWF  59
088E:  MOVF   2F,W
088F:  MOVWF  58
0890:  MOVF   2E,W
0891:  MOVWF  57
0892:  MOVF   2D,W
0893:  MOVWF  56
0894:  MOVLW  02
0895:  MOVWF  5A
0896:  BCF    0A.3
0897:  CALL   363
0898:  BSF    0A.3
....................     } 
0899:  GOTO   0A3
....................     else { 
....................       fprintf(PORT1," Error! "); 
089A:  MOVLW  6A
089B:  BSF    03.6
089C:  MOVWF  0D
089D:  MOVLW  00
089E:  MOVWF  0F
089F:  BCF    0A.3
08A0:  BCF    03.6
08A1:  GOTO   447
08A2:  BSF    0A.3
....................     } 
....................     //setpoint = atoi(buffer); 
....................      
....................     erro_atual = setpoint - temp; 
08A3:  CLRF   57
08A4:  MOVF   37,W
08A5:  MOVWF  56
08A6:  BCF    0A.3
08A7:  GOTO   4A1
08A8:  BSF    0A.3
08A9:  BSF    03.1
08AA:  MOVF   7A,W
08AB:  MOVWF  5D
08AC:  MOVF   79,W
08AD:  MOVWF  5C
08AE:  MOVF   78,W
08AF:  MOVWF  5B
08B0:  MOVF   77,W
08B1:  MOVWF  5A
08B2:  MOVF   30,W
08B3:  MOVWF  61
08B4:  MOVF   2F,W
08B5:  MOVWF  60
08B6:  MOVF   2E,W
08B7:  MOVWF  5F
08B8:  MOVF   2D,W
08B9:  MOVWF  5E
08BA:  BCF    0A.3
08BB:  CALL   4C0
08BC:  BSF    0A.3
08BD:  MOVF   7A,W
08BE:  MOVWF  4F
08BF:  MOVF   79,W
08C0:  MOVWF  4E
08C1:  MOVF   78,W
08C2:  MOVWF  4D
08C3:  MOVF   77,W
08C4:  MOVWF  4C
....................      
....................     PID = ultimo_controle+(Kp*((erro_atual-ultimo_erro)+(ultimo_erro*T/Ti))); 
08C5:  BSF    03.1
08C6:  MOVF   4F,W
08C7:  MOVWF  5D
08C8:  MOVF   4E,W
08C9:  MOVWF  5C
08CA:  MOVF   4D,W
08CB:  MOVWF  5B
08CC:  MOVF   4C,W
08CD:  MOVWF  5A
08CE:  MOVF   47,W
08CF:  MOVWF  61
08D0:  MOVF   46,W
08D1:  MOVWF  60
08D2:  MOVF   45,W
08D3:  MOVWF  5F
08D4:  MOVF   44,W
08D5:  MOVWF  5E
08D6:  BCF    0A.3
08D7:  CALL   4C0
08D8:  BSF    0A.3
08D9:  MOVF   7A,W
08DA:  MOVWF  59
08DB:  MOVF   79,W
08DC:  MOVWF  58
08DD:  MOVF   78,W
08DE:  MOVWF  57
08DF:  MOVF   77,W
08E0:  MOVWF  56
08E1:  MOVF   47,W
08E2:  MOVWF  66
08E3:  MOVF   46,W
08E4:  MOVWF  65
08E5:  MOVF   45,W
08E6:  MOVWF  64
08E7:  MOVF   44,W
08E8:  MOVWF  63
08E9:  MOVF   43,W
08EA:  MOVWF  6A
08EB:  MOVF   42,W
08EC:  MOVWF  69
08ED:  MOVF   41,W
08EE:  MOVWF  68
08EF:  MOVF   40,W
08F0:  MOVWF  67
08F1:  BCF    0A.3
08F2:  CALL   29F
08F3:  BSF    0A.3
08F4:  MOVF   7A,W
08F5:  MOVWF  5D
08F6:  MOVF   79,W
08F7:  MOVWF  5C
08F8:  MOVF   78,W
08F9:  MOVWF  5B
08FA:  MOVF   77,W
08FB:  MOVWF  5A
08FC:  MOVF   5D,W
08FD:  MOVWF  61
08FE:  MOVF   5C,W
08FF:  MOVWF  60
0900:  MOVF   5B,W
0901:  MOVWF  5F
0902:  MOVF   5A,W
0903:  MOVWF  5E
0904:  MOVF   3F,W
0905:  MOVWF  65
0906:  MOVF   3E,W
0907:  MOVWF  64
0908:  MOVF   3D,W
0909:  MOVWF  63
090A:  MOVF   3C,W
090B:  MOVWF  62
090C:  BCF    0A.3
090D:  CALL   17C
090E:  BSF    0A.3
090F:  BCF    03.1
0910:  MOVF   59,W
0911:  MOVWF  5D
0912:  MOVF   58,W
0913:  MOVWF  5C
0914:  MOVF   57,W
0915:  MOVWF  5B
0916:  MOVF   56,W
0917:  MOVWF  5A
0918:  MOVF   7A,W
0919:  MOVWF  61
091A:  MOVF   79,W
091B:  MOVWF  60
091C:  MOVF   78,W
091D:  MOVWF  5F
091E:  MOVF   77,W
091F:  MOVWF  5E
0920:  BCF    0A.3
0921:  CALL   4C0
0922:  BSF    0A.3
0923:  MOVF   3B,W
0924:  MOVWF  66
0925:  MOVF   3A,W
0926:  MOVWF  65
0927:  MOVF   39,W
0928:  MOVWF  64
0929:  MOVF   38,W
092A:  MOVWF  63
092B:  MOVF   7A,W
092C:  MOVWF  6A
092D:  MOVF   79,W
092E:  MOVWF  69
092F:  MOVF   78,W
0930:  MOVWF  68
0931:  MOVF   77,W
0932:  MOVWF  67
0933:  BCF    0A.3
0934:  CALL   29F
0935:  BSF    0A.3
0936:  BCF    03.1
0937:  MOVF   53,W
0938:  MOVWF  5D
0939:  MOVF   52,W
093A:  MOVWF  5C
093B:  MOVF   51,W
093C:  MOVWF  5B
093D:  MOVF   50,W
093E:  MOVWF  5A
093F:  MOVF   7A,W
0940:  MOVWF  61
0941:  MOVF   79,W
0942:  MOVWF  60
0943:  MOVF   78,W
0944:  MOVWF  5F
0945:  MOVF   77,W
0946:  MOVWF  5E
0947:  BCF    0A.3
0948:  CALL   4C0
0949:  BSF    0A.3
094A:  MOVF   7A,W
094B:  MOVWF  4B
094C:  MOVF   79,W
094D:  MOVWF  4A
094E:  MOVF   78,W
094F:  MOVWF  49
0950:  MOVF   77,W
0951:  MOVWF  48
....................      
....................      
....................     if (PID > 100) { 
0952:  CLRF   59
0953:  CLRF   58
0954:  MOVLW  48
0955:  MOVWF  57
0956:  MOVLW  85
0957:  MOVWF  56
0958:  MOVF   4B,W
0959:  MOVWF  5D
095A:  MOVF   4A,W
095B:  MOVWF  5C
095C:  MOVF   49,W
095D:  MOVWF  5B
095E:  MOVF   48,W
095F:  MOVWF  5A
0960:  BCF    0A.3
0961:  CALL   601
0962:  BSF    0A.3
0963:  BTFSS  03.0
0964:  GOTO   167
....................       tempo_on = 0; 
0965:  CLRF   36
....................     }  
0966:  GOTO   1AD
....................  
....................     else if (PID < -100) { 
0967:  MOVF   4B,W
0968:  MOVWF  59
0969:  MOVF   4A,W
096A:  MOVWF  58
096B:  MOVF   49,W
096C:  MOVWF  57
096D:  MOVF   48,W
096E:  MOVWF  56
096F:  CLRF   5D
0970:  CLRF   5C
0971:  MOVLW  C8
0972:  MOVWF  5B
0973:  MOVLW  85
0974:  MOVWF  5A
0975:  BCF    0A.3
0976:  CALL   601
0977:  BSF    0A.3
0978:  BTFSS  03.0
0979:  GOTO   17D
....................       tempo_on = 11; 
097A:  MOVLW  0B
097B:  MOVWF  36
....................     } 
097C:  GOTO   1AD
....................       
....................     else 
....................       tempo_on = 10 - (PID/10); 
097D:  MOVF   4B,W
097E:  MOVWF  61
097F:  MOVF   4A,W
0980:  MOVWF  60
0981:  MOVF   49,W
0982:  MOVWF  5F
0983:  MOVF   48,W
0984:  MOVWF  5E
0985:  CLRF   65
0986:  CLRF   64
0987:  MOVLW  20
0988:  MOVWF  63
0989:  MOVLW  82
098A:  MOVWF  62
098B:  BCF    0A.3
098C:  CALL   17C
098D:  BSF    0A.3
098E:  BSF    03.1
098F:  CLRF   5D
0990:  CLRF   5C
0991:  MOVLW  20
0992:  MOVWF  5B
0993:  MOVLW  82
0994:  MOVWF  5A
0995:  MOVF   7A,W
0996:  MOVWF  61
0997:  MOVF   79,W
0998:  MOVWF  60
0999:  MOVF   78,W
099A:  MOVWF  5F
099B:  MOVF   77,W
099C:  MOVWF  5E
099D:  BCF    0A.3
099E:  CALL   4C0
099F:  BSF    0A.3
09A0:  MOVF   7A,W
09A1:  MOVWF  59
09A2:  MOVF   79,W
09A3:  MOVWF  58
09A4:  MOVF   78,W
09A5:  MOVWF  57
09A6:  MOVF   77,W
09A7:  MOVWF  56
09A8:  BCF    0A.3
09A9:  GOTO   640
09AA:  BSF    0A.3
09AB:  MOVF   78,W
09AC:  MOVWF  36
....................        
....................        
....................        
....................     ultimo_erro = erro_atual; 
09AD:  MOVF   4F,W
09AE:  MOVWF  47
09AF:  MOVF   4E,W
09B0:  MOVWF  46
09B1:  MOVF   4D,W
09B2:  MOVWF  45
09B3:  MOVF   4C,W
09B4:  MOVWF  44
....................     ultimo_controle = PID; 
09B5:  MOVF   4B,W
09B6:  MOVWF  53
09B7:  MOVF   4A,W
09B8:  MOVWF  52
09B9:  MOVF   49,W
09BA:  MOVWF  51
09BB:  MOVF   48,W
09BC:  MOVWF  50
....................        
....................       //fprintf(PORT1,"%f ", ultimo_erro); 
....................        
....................     fprintf(PORT1,"tempo_On:%i ", tempo_on); 
09BD:  MOVLW  6F
09BE:  BSF    03.6
09BF:  MOVWF  0D
09C0:  MOVLW  00
09C1:  MOVWF  0F
09C2:  BCF    03.0
09C3:  MOVLW  09
09C4:  BCF    03.6
09C5:  MOVWF  56
09C6:  BCF    0A.3
09C7:  CALL   246
09C8:  BSF    0A.3
09C9:  MOVF   36,W
09CA:  MOVWF  56
09CB:  MOVLW  18
09CC:  MOVWF  57
09CD:  BCF    0A.3
09CE:  CALL   676
09CF:  BSF    0A.3
09D0:  MOVLW  20
09D1:  BTFSS  0C.4
09D2:  GOTO   1D1
09D3:  MOVWF  19
....................        
....................     fprintf(PORT1,"PID: %f ", PID); 
09D4:  MOVLW  76
09D5:  BSF    03.6
09D6:  MOVWF  0D
09D7:  MOVLW  00
09D8:  MOVWF  0F
09D9:  BCF    03.0
09DA:  MOVLW  05
09DB:  BCF    03.6
09DC:  MOVWF  56
09DD:  BCF    0A.3
09DE:  CALL   246
09DF:  BSF    0A.3
09E0:  MOVLW  89
09E1:  MOVWF  04
09E2:  MOVF   4B,W
09E3:  MOVWF  59
09E4:  MOVF   4A,W
09E5:  MOVWF  58
09E6:  MOVF   49,W
09E7:  MOVWF  57
09E8:  MOVF   48,W
09E9:  MOVWF  56
09EA:  MOVLW  02
09EB:  MOVWF  5A
09EC:  BCF    0A.3
09ED:  CALL   363
09EE:  BSF    0A.3
09EF:  MOVLW  20
09F0:  BTFSS  0C.4
09F1:  GOTO   1F0
09F2:  MOVWF  19
....................        
....................     fprintf(PORT1,"set: %i ", setpoint); 
09F3:  MOVLW  7B
09F4:  BSF    03.6
09F5:  MOVWF  0D
09F6:  MOVLW  00
09F7:  MOVWF  0F
09F8:  BCF    03.0
09F9:  MOVLW  05
09FA:  BCF    03.6
09FB:  MOVWF  56
09FC:  BCF    0A.3
09FD:  CALL   246
09FE:  BSF    0A.3
09FF:  MOVF   37,W
0A00:  MOVWF  56
0A01:  MOVLW  18
0A02:  MOVWF  57
0A03:  BCF    0A.3
0A04:  CALL   676
0A05:  BSF    0A.3
0A06:  MOVLW  20
0A07:  BTFSS  0C.4
0A08:  GOTO   207
0A09:  MOVWF  19
....................        
....................     fprintf(PORT1,"zero: %i\n\r", cont_zero); 
0A0A:  MOVLW  80
0A0B:  BSF    03.6
0A0C:  MOVWF  0D
0A0D:  MOVLW  00
0A0E:  MOVWF  0F
0A0F:  BCF    03.0
0A10:  MOVLW  06
0A11:  BCF    03.6
0A12:  MOVWF  56
0A13:  BCF    0A.3
0A14:  CALL   246
0A15:  BSF    0A.3
0A16:  MOVF   35,W
0A17:  MOVWF  56
0A18:  MOVLW  18
0A19:  MOVWF  57
0A1A:  BCF    0A.3
0A1B:  CALL   676
0A1C:  BSF    0A.3
0A1D:  MOVLW  0A
0A1E:  BTFSS  0C.4
0A1F:  GOTO   21E
0A20:  MOVWF  19
0A21:  MOVLW  0D
0A22:  BTFSS  0C.4
0A23:  GOTO   222
0A24:  MOVWF  19
....................        
....................     delay_ms(50); 
0A25:  MOVLW  32
0A26:  MOVWF  56
0A27:  BCF    0A.3
0A28:  GOTO   6D1
0A29:  BSF    0A.3
0A2A:  GOTO   04E
....................    } 
....................  
.................... } 
0A2B:  SLEEP

Configuration Fuses:
   Word  1: 3F32   HS NOWDT PUT NOBROWNOUT NOLVP NOCPD NOWRT NODEBUG NOPROTECT
